; Function Attrs: nounwind uwtable
define dso_local i32 @GetAttrDefaultOid(i32 noundef %0, i16 noundef signext %1) local_unnamed_addr #0 {
  %3 = alloca [2 x %struct.ScanKeyData], align 16
  call void @llvm.lifetime.start.p0(i64 144, ptr nonnull %3) #6
  %4 = tail call ptr @table_open(i32 noundef 2604, i32 noundef 1) #6
  %5 = zext i32 %0 to i64
  call void @ScanKeyInit(ptr noundef nonnull %3, i16 noundef signext 2, i16 noundef zeroext 3, i32 noundef 184, i64 noundef %5) #6
  %6 = getelementptr inbounds nuw i8, ptr %3, i64 72
  %7 = sext i16 %1 to i64
  call void @ScanKeyInit(ptr noundef nonnull %6, i16 noundef signext 3, i16 noundef zeroext 3, i32 noundef 63, i64 noundef %7) #6
  %8 = call ptr @systable_beginscan(ptr noundef %4, i32 noundef 2656, i1 noundef zeroext true, ptr noundef null, i32 noundef 2, ptr noundef nonnull %3) #6
  %9 = call ptr @systable_getnext(ptr noundef %8) #6
  %.not = icmp eq ptr %9, null
  br i1 %.not, label %17, label %10

10:                                               ; preds = %2
  %11 = getelementptr i8, ptr %9, i64 16
  %.val = load ptr, ptr %11, align 8
  %12 = getelementptr inbounds nuw i8, ptr %.val, i64 22
  %13 = load i8, ptr %12, align 2
  %14 = zext i8 %13 to i64
  %15 = getelementptr inbounds nuw i8, ptr %.val, i64 %14
  %16 = load i32, ptr %15, align 4
  br label %17

17:                                               ; preds = %10, %2
  %.0 = phi i32 [ %16, %10 ], [ 0, %2 ]
  call void @systable_endscan(ptr noundef %8) #6
  call void @table_close(ptr noundef %4, i32 noundef 1) #6
  call void @llvm.lifetime.end.p0(i64 144, ptr nonnull %3) #6
  ret i32 %.0
}